target datalayout = "e-m:e-p270:32:32-p271:32:32-p272:64:64-i64:64-i128:128-f80:128-n8:16:32:64-S128"
target triple = "x86_64-pc-linux-gnu"

%"class.std::__1::condition_variable" = type { %union.pthread_cond_t }
%union.pthread_cond_t = type { %struct.__pthread_cond_s }
%struct.__pthread_cond_s = type { %union.__atomic_wide_counter, %union.__atomic_wide_counter, [2 x i32], [2 x i32], i32, i32, [2 x i32] }
%union.__atomic_wide_counter = type { i64 }
%"class.std::__1::unique_lock" = type <{ ptr, i8, [7 x i8] }>
%"class.std::__1::mutex" = type { %union.pthread_mutex_t }
%union.pthread_mutex_t = type { %struct.__pthread_mutex_s }
%struct.__pthread_mutex_s = type { i32, i32, i32, i32, i32, i16, i16, %struct.__pthread_internal_list }
%struct.__pthread_internal_list = type { ptr, ptr }

@.str = private unnamed_addr constant [43 x i8] c"condition_variable::wait: mutex not locked\00", align 1
@.str.1 = private unnamed_addr constant [31 x i8] c"condition_variable wait failed\00", align 1

; Function Attrs: inlinehint mustprogress uwtable
define linkonce_odr hidden noundef i32 @_ZNSt3__121__libcpp_condvar_waitB8ne210000EP14pthread_cond_tP15pthread_mutex_t(ptr noundef %0, ptr noundef %1) #5 comdat {
  %3 = alloca ptr, align 8
  %4 = alloca ptr, align 8
  store ptr %0, ptr %3, align 8, !tbaa !10
  store ptr %1, ptr %4, align 8, !tbaa !10
  %5 = load ptr, ptr %3, align 8, !tbaa !10
  %6 = load ptr, ptr %4, align 8, !tbaa !10
  %7 = call i32 @pthread_cond_wait(ptr noundef %5, ptr noundef %6)
  ret i32 %7
}

; Function Attrs: mustprogress nounwind uwtable
define linkonce_odr hidden noundef ptr @_ZNSt3__15mutex13native_handleB8ne210000Ev(ptr noundef nonnull align 8 dereferenceable(40) %0) #0 comdat align 2 {
  %2 = alloca ptr, align 8
  store ptr %0, ptr %2, align 8, !tbaa !22
  %3 = load ptr, ptr %2, align 8
  %4 = getelementptr inbounds nuw %"class.std::__1::mutex", ptr %3, i32 0, i32 0
  ret ptr %4
}

; Function Attrs: mustprogress nounwind uwtable
define linkonce_odr hidden noundef ptr @_ZNKSt3__111unique_lockINS_5mutexEE5mutexB8ne210000Ev(ptr noundef nonnull align 8 dereferenceable(9) %0) #0 comdat align 2 {
  %2 = alloca ptr, align 8
  store ptr %0, ptr %2, align 8, !tbaa !11
  %3 = load ptr, ptr %2, align 8
  %4 = getelementptr inbounds nuw %"class.std::__1::unique_lock", ptr %3, i32 0, i32 0
  %5 = load ptr, ptr %4, align 8, !tbaa !21
  ret ptr %5
}

; Function Attrs: mustprogress nounwind uwtable
define linkonce_odr hidden noundef zeroext i1 @_ZNKSt3__111unique_lockINS_5mutexEE9owns_lockB8ne210000Ev(ptr noundef nonnull align 8 dereferenceable(9) %0) #0 comdat align 2 {
  %2 = alloca ptr, align 8
  store ptr %0, ptr %2, align 8, !tbaa !11
  %3 = load ptr, ptr %2, align 8
  %4 = getelementptr inbounds nuw %"class.std::__1::unique_lock", ptr %3, i32 0, i32 1
  %5 = load i8, ptr %4, align 8, !tbaa !15, !range !19, !noundef !20
  %6 = trunc i8 %5 to i1
  ret i1 %6
}

; Function Attrs: mustprogress nounwind uwtable
define dso_local void @_ZNSt3__118condition_variable4waitERNS_11unique_lockINS_5mutexEEE(ptr noundef nonnull align 8 dereferenceable(48) %0, ptr noundef nonnull align 8 dereferenceable(9) %1) #0 align 2 personality ptr @__gxx_personality_v0 {
  %3 = alloca ptr, align 8
  %4 = alloca ptr, align 8
  %5 = alloca i32, align 4
  store ptr %0, ptr %3, align 8, !tbaa !5
  store ptr %1, ptr %4, align 8, !tbaa !11
  %6 = load ptr, ptr %3, align 8
  %7 = load ptr, ptr %4, align 8, !tbaa !11
  %8 = call noundef zeroext i1 @_ZNKSt3__111unique_lockINS_5mutexEE9owns_lockB8ne210000Ev(ptr noundef nonnull align 8 dereferenceable(9) %7) #13
  br i1 %8, label %11, label %9

9:                                                ; preds = %2
  invoke void @_ZNSt3__120__throw_system_errorEiPKc(i32 noundef 1, ptr noundef @.str) #14
          to label %10 unwind label %25

10:                                               ; preds = %9
  unreachable

11:                                               ; preds = %2
  call void @llvm.lifetime.start.p0(i64 4, ptr %5) #13
  %12 = getelementptr inbounds nuw %"class.std::__1::condition_variable", ptr %6, i32 0, i32 0
  %13 = load ptr, ptr %4, align 8, !tbaa !11
  %14 = call noundef ptr @_ZNKSt3__111unique_lockINS_5mutexEE5mutexB8ne210000Ev(ptr noundef nonnull align 8 dereferenceable(9) %13) #13
  %15 = invoke noundef ptr @_ZNSt3__15mutex13native_handleB8ne210000Ev(ptr noundef nonnull align 8 dereferenceable(40) %14)
          to label %16 unwind label %25

16:                                               ; preds = %11
  %17 = invoke noundef i32 @_ZNSt3__121__libcpp_condvar_waitB8ne210000EP14pthread_cond_tP15pthread_mutex_t(ptr noundef %12, ptr noundef %15)
          to label %18 unwind label %25

18:                                               ; preds = %16
  store i32 %17, ptr %5, align 4, !tbaa !13
  %19 = load i32, ptr %5, align 4, !tbaa !13
  %20 = icmp ne i32 %19, 0
  br i1 %20, label %21, label %24

21:                                               ; preds = %18
  %22 = load i32, ptr %5, align 4, !tbaa !13
  invoke void @_ZNSt3__120__throw_system_errorEiPKc(i32 noundef %22, ptr noundef @.str.1) #14
          to label %23 unwind label %25

23:                                               ; preds = %21
  unreachable

24:                                               ; preds = %18
  call void @llvm.lifetime.end.p0(i64 4, ptr %5) #13
  ret void

25:                                               ; preds = %21, %16, %11, %9
  %26 = landingpad { ptr, i32 }
          catch ptr null
  %27 = extractvalue { ptr, i32 } %26, 0
  call void @__clang_call_terminate(ptr %27) #12
  unreachable
}