; Function Attrs: mustprogress nounwind uwtable
define dso_local void @_ZNSt3__118condition_variable4waitERNS_11unique_lockINS_5mutexEEE(ptr noundef nonnull align 8 dereferenceable(48) %0, ptr noundef nonnull readonly align 8 captures(none) dereferenceable(9) %1) local_unnamed_addr #0 align 2 personality ptr @__gxx_personality_v0 {
  %3 = getelementptr inbounds nuw i8, ptr %1, i64 8
  %4 = load i8, ptr %3, align 8, !tbaa !5, !range !12, !noundef !13
  %5 = trunc nuw i8 %4 to i1
  br i1 %5, label %6, label %.invoke

6:                                                ; preds = %2
  %7 = load ptr, ptr %1, align 8, !tbaa !14
  %8 = invoke noundef i32 @pthread_cond_wait(ptr noundef nonnull %0, ptr noundef %7)
          to label %_ZNSt3__121__libcpp_condvar_waitB8ne210000EP14pthread_cond_tP15pthread_mutex_t.exit unwind label %12

_ZNSt3__121__libcpp_condvar_waitB8ne210000EP14pthread_cond_tP15pthread_mutex_t.exit: ; preds = %6
  %.not = icmp eq i32 %8, 0
  br i1 %.not, label %11, label %.invoke

.invoke:                                          ; preds = %_ZNSt3__121__libcpp_condvar_waitB8ne210000EP14pthread_cond_tP15pthread_mutex_t.exit, %2
  %9 = phi i32 [ 1, %2 ], [ %8, %_ZNSt3__121__libcpp_condvar_waitB8ne210000EP14pthread_cond_tP15pthread_mutex_t.exit ]
  %10 = phi ptr [ @.str, %2 ], [ @.str.1, %_ZNSt3__121__libcpp_condvar_waitB8ne210000EP14pthread_cond_tP15pthread_mutex_t.exit ]
  invoke void @_ZNSt3__120__throw_system_errorEiPKc(i32 noundef %9, ptr noundef nonnull %10) #13
          to label %.cont unwind label %12

.cont:                                            ; preds = %.invoke
  unreachable

11:                                               ; preds = %_ZNSt3__121__libcpp_condvar_waitB8ne210000EP14pthread_cond_tP15pthread_mutex_t.exit
  ret void

12:                                               ; preds = %.invoke, %6
  %13 = landingpad { ptr, i32 }
          catch ptr null
  %14 = extractvalue { ptr, i32 } %13, 0
  tail call void @__clang_call_terminate(ptr %14) #12
  unreachable
}